; Function Attrs: null_pointer_is_valid sspstrong uwtable
define internal noundef zeroext i16 @de_nas_5gs_mm_allow_pdu_ses_sts(ptr noundef %0, ptr noundef %1, ptr noundef %2, i32 noundef %3, i32 noundef %4, ptr readnone captures(none) %5, i32 %6) #0 {
  tail call void @proto_tree_add_bitmask_list(ptr noundef %1, ptr noundef %0, i32 noundef %3, i32 noundef 1, ptr noundef nonnull @de_nas_5gs_mm_allow_pdu_ses_sts.psi_0_7_flags, i32 noundef 0)
  %8 = add i32 %3, 1
  tail call void @proto_tree_add_bitmask_list(ptr noundef %1, ptr noundef %0, i32 noundef %8, i32 noundef 1, ptr noundef nonnull @de_nas_5gs_mm_allow_pdu_ses_sts.psi_8_15_flags, i32 noundef 0)
  %9 = add i32 %3, 2
  %10 = icmp ugt i32 %4, 2
  br i1 %10, label %11, label %15

11:                                               ; preds = %7
  %12 = add i32 %4, -2
  %13 = tail call ptr @proto_tree_add_expert(ptr noundef %1, ptr noundef %2, ptr noundef nonnull @ei_nas_5gs_extraneous_data, ptr noundef %0, i32 noundef %9, i32 noundef %12)
  %14 = add i32 %4, %3
  br label %15

15:                                               ; preds = %11, %7
  %.0 = phi i32 [ %14, %11 ], [ %9, %7 ]
  %16 = sub i32 %.0, %3
  %17 = trunc i32 %16 to i16
  ret i16 %17
}